target datalayout = "e-m:e-p270:32:32-p271:32:32-p272:64:64-i64:64-i128:128-f80:128-n8:16:32:64-S128"
target triple = "x86_64-pc-linux-gnu"

%"struct.Luau::CodeGen::IrOp" = type { i32 }

; Function Attrs: mustprogress uwtable
define dso_local void @_ZN4Luau7CodeGen19translateInstBinaryERNS0_9IrBuilderEPKji3TMS(ptr noundef nonnull align 8 dereferenceable(752) %0, ptr noundef %1, i32 noundef %2, i32 noundef %3) #0 {
  %5 = alloca ptr, align 8
  %6 = alloca ptr, align 8
  %7 = alloca i32, align 4
  %8 = alloca i32, align 4
  %9 = alloca %"struct.Luau::CodeGen::IrOp", align 4
  %10 = alloca %"struct.Luau::CodeGen::IrOp", align 4
  store ptr %0, ptr %5, align 8, !tbaa !4
  store ptr %1, ptr %6, align 8, !tbaa !9
  store i32 %2, ptr %7, align 4, !tbaa !11
  store i32 %3, ptr %8, align 4, !tbaa !118
  %11 = load ptr, ptr %5, align 8, !tbaa !4
  %12 = load ptr, ptr %6, align 8, !tbaa !9
  %13 = load i32, ptr %12, align 4, !tbaa !11
  %14 = lshr i32 %13, 8
  %15 = and i32 %14, 255
  %16 = load ptr, ptr %6, align 8, !tbaa !9
  %17 = load i32, ptr %16, align 4, !tbaa !11
  %18 = lshr i32 %17, 16
  %19 = and i32 %18, 255
  %20 = load ptr, ptr %6, align 8, !tbaa !9
  %21 = load i32, ptr %20, align 4, !tbaa !11
  %22 = lshr i32 %21, 24
  %23 = and i32 %22, 255
  %24 = load ptr, ptr %5, align 8, !tbaa !4
  %25 = load ptr, ptr %6, align 8, !tbaa !9
  %26 = load i32, ptr %25, align 4, !tbaa !11
  %27 = lshr i32 %26, 16
  %28 = and i32 %27, 255
  %29 = trunc i32 %28 to i8
  %30 = call i32 @_ZN4Luau7CodeGen9IrBuilder5vmRegEh(ptr noundef nonnull align 8 dereferenceable(752) %24, i8 noundef zeroext %29)
  %31 = getelementptr inbounds nuw %"struct.Luau::CodeGen::IrOp", ptr %9, i32 0, i32 0
  store i32 %30, ptr %31, align 4
  %32 = load ptr, ptr %5, align 8, !tbaa !4
  %33 = load ptr, ptr %6, align 8, !tbaa !9
  %34 = load i32, ptr %33, align 4, !tbaa !11
  %35 = lshr i32 %34, 24
  %36 = and i32 %35, 255
  %37 = trunc i32 %36 to i8
  %38 = call i32 @_ZN4Luau7CodeGen9IrBuilder5vmRegEh(ptr noundef nonnull align 8 dereferenceable(752) %32, i8 noundef zeroext %37)
  %39 = getelementptr inbounds nuw %"struct.Luau::CodeGen::IrOp", ptr %10, i32 0, i32 0
  store i32 %38, ptr %39, align 4
  %40 = load i32, ptr %7, align 4, !tbaa !11
  %41 = load i32, ptr %8, align 4, !tbaa !118
  %42 = getelementptr inbounds nuw %"struct.Luau::CodeGen::IrOp", ptr %9, i32 0, i32 0
  %43 = load i32, ptr %42, align 4
  %44 = getelementptr inbounds nuw %"struct.Luau::CodeGen::IrOp", ptr %10, i32 0, i32 0
  %45 = load i32, ptr %44, align 4
  call void @_ZN4Luau7CodeGenL26translateInstBinaryNumericERNS0_9IrBuilderEiiiNS0_4IrOpES3_i3TMS(ptr noundef nonnull align 8 dereferenceable(752) %11, i32 noundef %15, i32 noundef %19, i32 noundef %23, i32 %43, i32 %45, i32 noundef %40, i32 noundef %41)
  ret void
}