; Function Attrs: mustprogress uwtable
define dso_local void @_ZN4Luau7CodeGen19translateInstBinaryERNS0_9IrBuilderEPKji3TMS(ptr noundef nonnull align 8 dereferenceable(752) %0, ptr noundef readonly captures(none) %1, i32 noundef %2, i32 noundef %3) local_unnamed_addr #0 {
  %5 = load i32, ptr %1, align 4, !tbaa !4
  %6 = lshr i32 %5, 8
  %7 = and i32 %6, 255
  %8 = lshr i32 %5, 16
  %9 = and i32 %8, 255
  %10 = lshr i32 %5, 24
  %11 = trunc i32 %8 to i8
  %12 = tail call i32 @_ZN4Luau7CodeGen9IrBuilder5vmRegEh(ptr noundef nonnull align 8 dereferenceable(752) %0, i8 noundef zeroext %11)
  %13 = load i32, ptr %1, align 4, !tbaa !4
  %14 = lshr i32 %13, 24
  %15 = trunc nuw i32 %14 to i8
  %16 = tail call i32 @_ZN4Luau7CodeGen9IrBuilder5vmRegEh(ptr noundef nonnull align 8 dereferenceable(752) %0, i8 noundef zeroext %15)
  tail call fastcc void @_ZN4Luau7CodeGenL26translateInstBinaryNumericERNS0_9IrBuilderEiiiNS0_4IrOpES3_i3TMS(ptr noundef nonnull align 8 dereferenceable(752) %0, i32 noundef %7, i32 noundef %9, i32 noundef %10, i32 %12, i32 %16, i32 noundef %2, i32 noundef %3)
  ret void
}